; ModuleID = '43/1553.c'
source_filename = "43/1553.c"
target datalayout = "e-m:e-p270:32:32-p271:32:32-p272:64:64-i64:64-f80:128-n8:16:32:64-S128"
target triple = "x86_64-pc-linux-gnu"

@.str = private unnamed_addr constant [3 x i8] c"%d\00", align 1
@.str.1 = private unnamed_addr constant [7 x i8] c"%d %d\0A\00", align 1

; Function Attrs: noinline nounwind uwtable
define dso_local void @main() #0 {
  %1 = alloca i32, align 4
  %2 = alloca i32, align 4
  %3 = alloca i32, align 4
  %4 = alloca i32, align 4
  %5 = alloca i32, align 4
  %6 = alloca i32, align 4
  %7 = call i32 (i8*, ...) @__isoc99_scanf(i8* getelementptr inbounds ([3 x i8], [3 x i8]* @.str, i64 0, i64 0), i32* %1)
  %8 = load i32, i32* %1, align 4
  %9 = sdiv i32 %8, 2
  store i32 %9, i32* %6, align 4
  store i32 3, i32* %2, align 4
  br label %10

10:                                               ; preds = %71, %0
  %11 = load i32, i32* %2, align 4
  %12 = load i32, i32* %6, align 4
  %13 = icmp sle i32 %11, %12
  br i1 %13, label %14, label %74

14:                                               ; preds = %10
  %15 = load i32, i32* %2, align 4
  %16 = sitofp i32 %15 to double
  %17 = call double @sqrt(double %16) #3
  %18 = fptosi double %17 to i32
  store i32 %18, i32* %5, align 4
  store i32 2, i32* %4, align 4
  br label %19

19:                                               ; preds = %30, %14
  %20 = load i32, i32* %4, align 4
  %21 = load i32, i32* %5, align 4
  %22 = icmp sle i32 %20, %21
  br i1 %22, label %23, label %33

23:                                               ; preds = %19
  %24 = load i32, i32* %2, align 4
  %25 = load i32, i32* %4, align 4
  %26 = srem i32 %24, %25
  %27 = icmp eq i32 %26, 0
  br i1 %27, label %28, label %29

28:                                               ; preds = %23
  br label %33

29:                                               ; preds = %23
  br label %30

30:                                               ; preds = %29
  %31 = load i32, i32* %4, align 4
  %32 = add nsw i32 %31, 1
  store i32 %32, i32* %4, align 4
  br label %19

33:                                               ; preds = %28, %19
  %34 = load i32, i32* %4, align 4
  %35 = load i32, i32* %5, align 4
  %36 = add nsw i32 %35, 1
  %37 = icmp sge i32 %34, %36
  br i1 %37, label %38, label %70

38:                                               ; preds = %33
  %39 = load i32, i32* %1, align 4
  %40 = load i32, i32* %2, align 4
  %41 = sub nsw i32 %39, %40
  store i32 %41, i32* %3, align 4
  %42 = load i32, i32* %3, align 4
  %43 = sitofp i32 %42 to double
  %44 = call double @sqrt(double %43) #3
  %45 = fptosi double %44 to i32
  store i32 %45, i32* %5, align 4
  store i32 2, i32* %4, align 4
  br label %46

46:                                               ; preds = %57, %38
  %47 = load i32, i32* %4, align 4
  %48 = load i32, i32* %5, align 4
  %49 = icmp sle i32 %47, %48
  br i1 %49, label %50, label %60

50:                                               ; preds = %46
  %51 = load i32, i32* %3, align 4
  %52 = load i32, i32* %4, align 4
  %53 = srem i32 %51, %52
  %54 = icmp eq i32 %53, 0
  br i1 %54, label %55, label %56

55:                                               ; preds = %50
  br label %60

56:                                               ; preds = %50
  br label %57

57:                                               ; preds = %56
  %58 = load i32, i32* %4, align 4
  %59 = add nsw i32 %58, 1
  store i32 %59, i32* %4, align 4
  br label %46

60:                                               ; preds = %55, %46
  %61 = load i32, i32* %4, align 4
  %62 = load i32, i32* %5, align 4
  %63 = add nsw i32 %62, 1
  %64 = icmp sge i32 %61, %63
  br i1 %64, label %65, label %69

65:                                               ; preds = %60
  %66 = load i32, i32* %2, align 4
  %67 = load i32, i32* %3, align 4
  %68 = call i32 (i8*, ...) @printf(i8* getelementptr inbounds ([7 x i8], [7 x i8]* @.str.1, i64 0, i64 0), i32 %66, i32 %67)
  br label %69

69:                                               ; preds = %65, %60
  br label %70

70:                                               ; preds = %69, %33
  br label %71

71:                                               ; preds = %70
  %72 = load i32, i32* %2, align 4
  %73 = add nsw i32 %72, 2
  store i32 %73, i32* %2, align 4
  br label %10

74:                                               ; preds = %10
  ret void
}

declare dso_local i32 @__isoc99_scanf(i8*, ...) #1

; Function Attrs: nounwind
declare dso_local double @sqrt(double) #2

declare dso_local i32 @printf(i8*, ...) #1


!llvm.module.flags = !{!0}
!llvm.ident = !{!1}

!0 = !{i32 1, !"wchar_size", i32 4}
!1 = !{!"clang version 10.0.0-4ubuntu1 "}
